; ModuleID = '32/2200.c'
source_filename = "32/2200.c"
target datalayout = "e-m:e-p270:32:32-p271:32:32-p272:64:64-i64:64-f80:128-n8:16:32:64-S128"
target triple = "x86_64-pc-linux-gnu"

@.str = private unnamed_addr constant [3 x i8] c"%d\00", align 1
@.str.1 = private unnamed_addr constant [5 x i8] c"%s%s\00", align 1
@.str.2 = private unnamed_addr constant [4 x i8] c"\0A%s\00", align 1

; Function Attrs: noinline nounwind uwtable
define dso_local i32 @main() #0 {
  %1 = alloca i32, align 4
  %2 = alloca i32, align 4
  %3 = alloca [100 x [100 x i8]], align 16
  %4 = alloca [100 x [100 x i8]], align 16
  %5 = alloca i32, align 4
  %6 = alloca i32, align 4
  %7 = alloca i32, align 4
  %8 = alloca i32, align 4
  %9 = alloca i32, align 4
  store i32 0, i32* %1, align 4
  %10 = call i32 (i8*, ...) @__isoc99_scanf(i8* getelementptr inbounds ([3 x i8], [3 x i8]* @.str, i64 0, i64 0), i32* %2)
  store i32 0, i32* %5, align 4
  br label %11

11:                                               ; preds = %23, %0
  %12 = load i32, i32* %5, align 4
  %13 = load i32, i32* %2, align 4
  %14 = icmp slt i32 %12, %13
  br i1 %14, label %15, label %26

15:                                               ; preds = %11
  %16 = load i32, i32* %5, align 4
  %17 = sext i32 %16 to i64
  %18 = getelementptr inbounds [100 x [100 x i8]], [100 x [100 x i8]]* %3, i64 0, i64 %17
  %19 = load i32, i32* %5, align 4
  %20 = sext i32 %19 to i64
  %21 = getelementptr inbounds [100 x [100 x i8]], [100 x [100 x i8]]* %4, i64 0, i64 %20
  %22 = call i32 (i8*, ...) @__isoc99_scanf(i8* getelementptr inbounds ([5 x i8], [5 x i8]* @.str.1, i64 0, i64 0), [100 x i8]* %18, [100 x i8]* %21)
  br label %23

23:                                               ; preds = %15
  %24 = load i32, i32* %5, align 4
  %25 = add nsw i32 %24, 1
  store i32 %25, i32* %5, align 4
  br label %11

26:                                               ; preds = %11
  store i32 0, i32* %5, align 4
  br label %27

27:                                               ; preds = %182, %26
  %28 = load i32, i32* %5, align 4
  %29 = load i32, i32* %2, align 4
  %30 = icmp slt i32 %28, %29
  br i1 %30, label %31, label %185

31:                                               ; preds = %27
  store i32 0, i32* %6, align 4
  br label %32

32:                                               ; preds = %43, %31
  %33 = load i32, i32* %5, align 4
  %34 = sext i32 %33 to i64
  %35 = getelementptr inbounds [100 x [100 x i8]], [100 x [100 x i8]]* %3, i64 0, i64 %34
  %36 = load i32, i32* %6, align 4
  %37 = sext i32 %36 to i64
  %38 = getelementptr inbounds [100 x i8], [100 x i8]* %35, i64 0, i64 %37
  %39 = load i8, i8* %38, align 1
  %40 = sext i8 %39 to i32
  %41 = icmp ne i32 %40, 0
  br i1 %41, label %42, label %46

42:                                               ; preds = %32
  br label %43

43:                                               ; preds = %42
  %44 = load i32, i32* %6, align 4
  %45 = add nsw i32 %44, 1
  store i32 %45, i32* %6, align 4
  br label %32

46:                                               ; preds = %32
  store i32 0, i32* %7, align 4
  br label %47

47:                                               ; preds = %58, %46
  %48 = load i32, i32* %5, align 4
  %49 = sext i32 %48 to i64
  %50 = getelementptr inbounds [100 x [100 x i8]], [100 x [100 x i8]]* %4, i64 0, i64 %49
  %51 = load i32, i32* %7, align 4
  %52 = sext i32 %51 to i64
  %53 = getelementptr inbounds [100 x i8], [100 x i8]* %50, i64 0, i64 %52
  %54 = load i8, i8* %53, align 1
  %55 = sext i8 %54 to i32
  %56 = icmp ne i32 %55, 0
  br i1 %56, label %57, label %61

57:                                               ; preds = %47
  br label %58

58:                                               ; preds = %57
  %59 = load i32, i32* %7, align 4
  %60 = add nsw i32 %59, 1
  store i32 %60, i32* %7, align 4
  br label %47

61:                                               ; preds = %47
  store i32 0, i32* %9, align 4
  store i32 1, i32* %8, align 4
  br label %62

62:                                               ; preds = %160, %61
  %63 = load i32, i32* %8, align 4
  %64 = load i32, i32* %7, align 4
  %65 = icmp sle i32 %63, %64
  br i1 %65, label %66, label %163

66:                                               ; preds = %62
  %67 = load i32, i32* %5, align 4
  %68 = sext i32 %67 to i64
  %69 = getelementptr inbounds [100 x [100 x i8]], [100 x [100 x i8]]* %3, i64 0, i64 %68
  %70 = load i32, i32* %6, align 4
  %71 = load i32, i32* %8, align 4
  %72 = sub nsw i32 %70, %71
  %73 = sext i32 %72 to i64
  %74 = getelementptr inbounds [100 x i8], [100 x i8]* %69, i64 0, i64 %73
  %75 = load i8, i8* %74, align 1
  %76 = sext i8 %75 to i32
  %77 = load i32, i32* %9, align 4
  %78 = add nsw i32 %76, %77
  %79 = load i32, i32* %5, align 4
  %80 = sext i32 %79 to i64
  %81 = getelementptr inbounds [100 x [100 x i8]], [100 x [100 x i8]]* %4, i64 0, i64 %80
  %82 = load i32, i32* %7, align 4
  %83 = load i32, i32* %8, align 4
  %84 = sub nsw i32 %82, %83
  %85 = sext i32 %84 to i64
  %86 = getelementptr inbounds [100 x i8], [100 x i8]* %81, i64 0, i64 %85
  %87 = load i8, i8* %86, align 1
  %88 = sext i8 %87 to i32
  %89 = icmp slt i32 %78, %88
  br i1 %89, label %90, label %125

90:                                               ; preds = %66
  %91 = load i32, i32* %5, align 4
  %92 = sext i32 %91 to i64
  %93 = getelementptr inbounds [100 x [100 x i8]], [100 x [100 x i8]]* %3, i64 0, i64 %92
  %94 = load i32, i32* %6, align 4
  %95 = load i32, i32* %8, align 4
  %96 = sub nsw i32 %94, %95
  %97 = sext i32 %96 to i64
  %98 = getelementptr inbounds [100 x i8], [100 x i8]* %93, i64 0, i64 %97
  %99 = load i8, i8* %98, align 1
  %100 = sext i8 %99 to i32
  %101 = add nsw i32 %100, 10
  %102 = load i32, i32* %5, align 4
  %103 = sext i32 %102 to i64
  %104 = getelementptr inbounds [100 x [100 x i8]], [100 x [100 x i8]]* %4, i64 0, i64 %103
  %105 = load i32, i32* %7, align 4
  %106 = load i32, i32* %8, align 4
  %107 = sub nsw i32 %105, %106
  %108 = sext i32 %107 to i64
  %109 = getelementptr inbounds [100 x i8], [100 x i8]* %104, i64 0, i64 %108
  %110 = load i8, i8* %109, align 1
  %111 = sext i8 %110 to i32
  %112 = sub nsw i32 %111, 48
  %113 = sub nsw i32 %101, %112
  %114 = load i32, i32* %9, align 4
  %115 = add nsw i32 %113, %114
  %116 = trunc i32 %115 to i8
  %117 = load i32, i32* %5, align 4
  %118 = sext i32 %117 to i64
  %119 = getelementptr inbounds [100 x [100 x i8]], [100 x [100 x i8]]* %3, i64 0, i64 %118
  %120 = load i32, i32* %6, align 4
  %121 = load i32, i32* %8, align 4
  %122 = sub nsw i32 %120, %121
  %123 = sext i32 %122 to i64
  %124 = getelementptr inbounds [100 x i8], [100 x i8]* %119, i64 0, i64 %123
  store i8 %116, i8* %124, align 1
  store i32 -1, i32* %9, align 4
  br label %159

125:                                              ; preds = %66
  %126 = load i32, i32* %5, align 4
  %127 = sext i32 %126 to i64
  %128 = getelementptr inbounds [100 x [100 x i8]], [100 x [100 x i8]]* %3, i64 0, i64 %127
  %129 = load i32, i32* %6, align 4
  %130 = load i32, i32* %8, align 4
  %131 = sub nsw i32 %129, %130
  %132 = sext i32 %131 to i64
  %133 = getelementptr inbounds [100 x i8], [100 x i8]* %128, i64 0, i64 %132
  %134 = load i8, i8* %133, align 1
  %135 = sext i8 %134 to i32
  %136 = load i32, i32* %5, align 4
  %137 = sext i32 %136 to i64
  %138 = getelementptr inbounds [100 x [100 x i8]], [100 x [100 x i8]]* %4, i64 0, i64 %137
  %139 = load i32, i32* %7, align 4
  %140 = load i32, i32* %8, align 4
  %141 = sub nsw i32 %139, %140
  %142 = sext i32 %141 to i64
  %143 = getelementptr inbounds [100 x i8], [100 x i8]* %138, i64 0, i64 %142
  %144 = load i8, i8* %143, align 1
  %145 = sext i8 %144 to i32
  %146 = sub nsw i32 %145, 48
  %147 = sub nsw i32 %135, %146
  %148 = load i32, i32* %9, align 4
  %149 = add nsw i32 %147, %148
  %150 = trunc i32 %149 to i8
  %151 = load i32, i32* %5, align 4
  %152 = sext i32 %151 to i64
  %153 = getelementptr inbounds [100 x [100 x i8]], [100 x [100 x i8]]* %3, i64 0, i64 %152
  %154 = load i32, i32* %6, align 4
  %155 = load i32, i32* %8, align 4
  %156 = sub nsw i32 %154, %155
  %157 = sext i32 %156 to i64
  %158 = getelementptr inbounds [100 x i8], [100 x i8]* %153, i64 0, i64 %157
  store i8 %150, i8* %158, align 1
  store i32 0, i32* %9, align 4
  br label %159

159:                                              ; preds = %125, %90
  br label %160

160:                                              ; preds = %159
  %161 = load i32, i32* %8, align 4
  %162 = add nsw i32 %161, 1
  store i32 %162, i32* %8, align 4
  br label %62

163:                                              ; preds = %62
  %164 = load i32, i32* %9, align 4
  %165 = load i32, i32* %5, align 4
  %166 = sext i32 %165 to i64
  %167 = getelementptr inbounds [100 x [100 x i8]], [100 x [100 x i8]]* %3, i64 0, i64 %166
  %168 = load i32, i32* %6, align 4
  %169 = load i32, i32* %8, align 4
  %170 = sub nsw i32 %168, %169
  %171 = sext i32 %170 to i64
  %172 = getelementptr inbounds [100 x i8], [100 x i8]* %167, i64 0, i64 %171
  %173 = load i8, i8* %172, align 1
  %174 = sext i8 %173 to i32
  %175 = add nsw i32 %174, %164
  %176 = trunc i32 %175 to i8
  store i8 %176, i8* %172, align 1
  %177 = load i32, i32* %5, align 4
  %178 = sext i32 %177 to i64
  %179 = getelementptr inbounds [100 x [100 x i8]], [100 x [100 x i8]]* %3, i64 0, i64 %178
  %180 = getelementptr inbounds [100 x i8], [100 x i8]* %179, i64 0, i64 0
  %181 = call i32 (i8*, ...) @printf(i8* getelementptr inbounds ([4 x i8], [4 x i8]* @.str.2, i64 0, i64 0), i8* %180)
  br label %182

182:                                              ; preds = %163
  %183 = load i32, i32* %5, align 4
  %184 = add nsw i32 %183, 1
  store i32 %184, i32* %5, align 4
  br label %27

185:                                              ; preds = %27
  ret i32 0
}

declare dso_local i32 @__isoc99_scanf(i8*, ...) #1

declare dso_local i32 @printf(i8*, ...) #1


!llvm.module.flags = !{!0}
!llvm.ident = !{!1}

!0 = !{i32 1, !"wchar_size", i32 4}
!1 = !{!"clang version 10.0.0-4ubuntu1 "}
